(lp1
(dp2
S'near'
p3
S'suvToSmart'
p4
sS'version'
p5
I0
sS'far1'
p6
S'benchBed'
p7
sS'trained'
p8
S'limoToSedan'
p9
sS'far2'
p10
S'chairTable'
p11
sa(dp12
g3
g4
sg5
I1
sg6
S'bedChair'
p13
sg8
g9
sg10
S'tableBench'
p14
sa(dp15
g3
g4
sg5
I2
sg6
S'bedTable'
p16
sg8
g9
sg10
S'chairBench'
p17
sa(dp18
g3
S'suvToSedan'
p19
sg5
I3
sg6
g7
sg8
S'limoToSmart'
p20
sg10
g11
sa(dp21
g3
g19
sg5
I4
sg6
g13
sg8
g20
sg10
g14
sa(dp22
g3
g19
sg5
I5
sg6
g16
sg8
g20
sg10
g17
sa(dp23
g3
S'smartToSedan'
p24
sg5
I6
sg6
g7
sg8
S'limoToSUV'
p25
sg10
g11
sa(dp26
g3
g24
sg5
I7
sg6
g13
sg8
g25
sg10
g14
sa(dp27
g3
g24
sg5
I8
sg6
g16
sg8
g25
sg10
g17
sa(dp28
g3
g25
sg5
I9
sg6
g7
sg8
g24
sg10
g11
sa(dp29
g3
g25
sg5
I10
sg6
g13
sg8
g24
sg10
g14
sa(dp30
g3
g25
sg5
I11
sg6
g16
sg8
g24
sg10
g17
sa(dp31
g3
g20
sg5
I12
sg6
g7
sg8
g19
sg10
g11
sa(dp32
g3
g20
sg5
I13
sg6
g13
sg8
g19
sg10
g14
sa(dp33
g3
g20
sg5
I14
sg6
g16
sg8
g19
sg10
g17
sa(dp34
g3
g9
sg5
I15
sg6
g7
sg8
g4
sg10
g11
sa(dp35
g3
g9
sg5
I16
sg6
g13
sg8
g4
sg10
g14
sa(dp36
g3
g9
sg5
I17
sg6
g16
sg8
g4
sg10
g17
sa(dp37
g3
g11
sg5
I18
sg6
g9
sg8
g7
sg10
g4
sa(dp38
g3
g11
sg5
I19
sg6
g20
sg8
g7
sg10
g19
sa(dp39
g3
g11
sg5
I20
sg6
g25
sg8
g7
sg10
g24
sa(dp40
g3
g14
sg5
I21
sg6
g9
sg8
g13
sg10
g4
sa(dp41
g3
g14
sg5
I22
sg6
g20
sg8
g13
sg10
g19
sa(dp42
g3
g14
sg5
I23
sg6
g25
sg8
g13
sg10
g24
sa(dp43
g3
g17
sg5
I24
sg6
g9
sg8
g16
sg10
g4
sa(dp44
g3
g17
sg5
I25
sg6
g20
sg8
g16
sg10
g19
sa(dp45
g3
g17
sg5
I26
sg6
g25
sg8
g16
sg10
g24
sa(dp46
g3
g16
sg5
I27
sg6
g9
sg8
g17
sg10
g4
sa(dp47
g3
g16
sg5
I28
sg6
g20
sg8
g17
sg10
g19
sa(dp48
g3
g16
sg5
I29
sg6
g25
sg8
g17
sg10
g24
sa(dp49
g3
g13
sg5
I30
sg6
g9
sg8
g14
sg10
g4
sa(dp50
g3
g13
sg5
I31
sg6
g20
sg8
g14
sg10
g19
sa(dp51
g3
g13
sg5
I32
sg6
g25
sg8
g14
sg10
g24
sa(dp52
g3
g7
sg5
I33
sg6
g9
sg8
g11
sg10
g4
sa(dp53
g3
g7
sg5
I34
sg6
g20
sg8
g11
sg10
g19
sa(dp54
g3
g7
sg5
I35
sg6
g25
sg8
g11
sg10
g24
sa.